target datalayout = "e-m:e-p270:32:32-p271:32:32-p272:64:64-i64:64-i128:128-f80:128-n8:16:32:64-S128"
target triple = "x86_64-pc-linux-gnu"

%struct.H5FL_reg_head_t = type { i8, i32, i32, ptr, i64, ptr }
%struct.H5VL_class_t = type { i32, i32, ptr, i32, i64, ptr, ptr, %struct.H5VL_info_class_t, %struct.H5VL_wrap_class_t, %struct.H5VL_attr_class_t, %struct.H5VL_dataset_class_t, %struct.H5VL_datatype_class_t, %struct.H5VL_file_class_t, %struct.H5VL_group_class_t, %struct.H5VL_link_class_t, %struct.H5VL_object_class_t, %struct.H5VL_introspect_class_t, %struct.H5VL_request_class_t, %struct.H5VL_blob_class_t, %struct.H5VL_token_class_t, ptr }
%struct.H5VL_info_class_t = type { i64, ptr, ptr, ptr, ptr, ptr }
%struct.H5VL_wrap_class_t = type { ptr, ptr, ptr, ptr, ptr }
%struct.H5VL_attr_class_t = type { ptr, ptr, ptr, ptr, ptr, ptr, ptr, ptr }
%struct.H5VL_dataset_class_t = type { ptr, ptr, ptr, ptr, ptr, ptr, ptr, ptr }
%struct.H5VL_datatype_class_t = type { ptr, ptr, ptr, ptr, ptr, ptr }
%struct.H5VL_file_class_t = type { ptr, ptr, ptr, ptr, ptr, ptr }
%struct.H5VL_group_class_t = type { ptr, ptr, ptr, ptr, ptr, ptr }
%struct.H5VL_link_class_t = type { ptr, ptr, ptr, ptr, ptr, ptr }
%struct.H5VL_object_class_t = type { ptr, ptr, ptr, ptr, ptr }
%struct.H5VL_introspect_class_t = type { ptr, ptr, ptr }
%struct.H5VL_request_class_t = type { ptr, ptr, ptr, ptr, ptr, ptr }
%struct.H5VL_blob_class_t = type { ptr, ptr, ptr, ptr }
%struct.H5VL_token_class_t = type { ptr, ptr, ptr }
%struct.H5VL_t = type { ptr, i64, i64 }
%struct.H5VL_wrap_ctx_t = type { i32, ptr, ptr }

@H5_H5VL_t_reg_free_list = global %struct.H5FL_reg_head_t { i8 0, i32 0, i32 0, ptr @.str, i64 24, ptr null }, align 8
@.str.2 = private unnamed_addr constant [101 x i8] c"generated/home/dtcxzyw/WorkSpace/Projects/compilers/llvm-opt-benchmark/bench/hdf5/hdf5/src/H5VLint.c\00", align 1
@H5E_VOL_g = external global i64, align 8
@H5E_CANTRELEASE_g = external global i64, align 8
@H5E_CANTDEC_g = external global i64, align 8
@.str.45 = private unnamed_addr constant [47 x i8] c"unable to decrement ref count on VOL connector\00", align 1
@__func__.H5VL_conn_dec_rc = private unnamed_addr constant [17 x i8] c"H5VL_conn_dec_rc\00", align 1
@H5_H5VL_wrap_ctx_t_reg_free_list = internal global %struct.H5FL_reg_head_t { i8 0, i32 0, i32 0, ptr @.str.108, i64 24, ptr null }, align 8
@__func__.H5VL__free_vol_wrapper = private unnamed_addr constant [23 x i8] c"H5VL__free_vol_wrapper\00", align 1
@.str.109 = private unnamed_addr constant [54 x i8] c"unable to release connector's object wrapping context\00", align 1

; Function Attrs: nounwind uwtable
define i64 @H5VL_conn_dec_rc(ptr noundef %0) #0 {
  %2 = alloca ptr, align 8
  %3 = alloca i64, align 8
  %4 = alloca i8, align 1
  store ptr %0, ptr %2, align 8
  store i64 -1, ptr %3, align 8
  store i8 0, ptr %4, align 1
  %5 = load ptr, ptr %2, align 8
  %6 = getelementptr inbounds %struct.H5VL_t, ptr %5, i32 0, i32 1
  %7 = load i64, ptr %6, align 8
  %8 = add nsw i64 %7, -1
  store i64 %8, ptr %6, align 8
  %9 = load ptr, ptr %2, align 8
  %10 = getelementptr inbounds %struct.H5VL_t, ptr %9, i32 0, i32 1
  %11 = load i64, ptr %10, align 8
  %12 = icmp eq i64 0, %11
  br i1 %12, label %13, label %37

13:                                               ; preds = %1
  %14 = load ptr, ptr %2, align 8
  %15 = getelementptr inbounds %struct.H5VL_t, ptr %14, i32 0, i32 2
  %16 = load i64, ptr %15, align 8
  %17 = call i32 @H5I_dec_ref(i64 noundef %16)
  %18 = icmp slt i32 %17, 0
  br i1 %18, label %19, label %34

19:                                               ; preds = %13
  br label %20

20:                                               ; preds = %19
  br label %21

21:                                               ; preds = %20
  br label %22

22:                                               ; preds = %21
  %23 = load i64, ptr @H5E_VOL_g, align 8
  %24 = load i64, ptr @H5E_CANTDEC_g, align 8
  %25 = call i32 (ptr, ptr, i32, i64, i64, ptr, ...) @H5E_printf_stack(ptr noundef @.str.2, ptr noundef @__func__.H5VL_conn_dec_rc, i32 noundef 983, i64 noundef %23, i64 noundef %24, ptr noundef @.str.45)
  br label %26

26:                                               ; preds = %22
  store i8 1, ptr %4, align 1
  %27 = load i8, ptr %4, align 1
  %28 = trunc i8 %27 to i1
  %29 = zext i1 %28 to i8
  store i8 %29, ptr %4, align 1
  br label %30

30:                                               ; preds = %26
  br label %31

31:                                               ; preds = %30
  store i64 -1, ptr %3, align 8
  br label %42

32:                                               ; No predecessors!
  br label %33

33:                                               ; preds = %32
  br label %34

34:                                               ; preds = %33, %13
  %35 = load ptr, ptr %2, align 8
  %36 = call ptr @H5FL_reg_free(ptr noundef @H5_H5VL_t_reg_free_list, ptr noundef %35)
  store i64 0, ptr %3, align 8
  br label %41

37:                                               ; preds = %1
  %38 = load ptr, ptr %2, align 8
  %39 = getelementptr inbounds %struct.H5VL_t, ptr %38, i32 0, i32 1
  %40 = load i64, ptr %39, align 8
  store i64 %40, ptr %3, align 8
  br label %41

41:                                               ; preds = %37, %34
  br label %42

42:                                               ; preds = %41, %31
  %43 = load i64, ptr %3, align 8
  ret i64 %43
}

; Function Attrs: nounwind uwtable
define internal i32 @H5VL__free_vol_wrapper(ptr noundef %0) #0 {
  %2 = alloca ptr, align 8
  %3 = alloca i32, align 4
  %4 = alloca i8, align 1
  store ptr %0, ptr %2, align 8
  store i32 0, ptr %3, align 4
  store i8 0, ptr %4, align 1
  %5 = load ptr, ptr %2, align 8
  %6 = getelementptr inbounds %struct.H5VL_wrap_ctx_t, ptr %5, i32 0, i32 2
  %7 = load ptr, ptr %6, align 8
  %8 = icmp ne ptr %7, null
  br i1 %8, label %9, label %39

9:                                                ; preds = %1
  %10 = load ptr, ptr %2, align 8
  %11 = getelementptr inbounds %struct.H5VL_wrap_ctx_t, ptr %10, i32 0, i32 1
  %12 = load ptr, ptr %11, align 8
  %13 = getelementptr inbounds %struct.H5VL_t, ptr %12, i32 0, i32 0
  %14 = load ptr, ptr %13, align 8
  %15 = getelementptr inbounds %struct.H5VL_class_t, ptr %14, i32 0, i32 8
  %16 = getelementptr inbounds %struct.H5VL_wrap_class_t, ptr %15, i32 0, i32 4
  %17 = load ptr, ptr %16, align 8
  %18 = load ptr, ptr %2, align 8
  %19 = getelementptr inbounds %struct.H5VL_wrap_ctx_t, ptr %18, i32 0, i32 2
  %20 = load ptr, ptr %19, align 8
  %21 = call i32 %17(ptr noundef %20)
  %22 = icmp slt i32 %21, 0
  br i1 %22, label %23, label %38

23:                                               ; preds = %9
  br label %24

24:                                               ; preds = %23
  br label %25

25:                                               ; preds = %24
  br label %26

26:                                               ; preds = %25
  %27 = load i64, ptr @H5E_VOL_g, align 8
  %28 = load i64, ptr @H5E_CANTRELEASE_g, align 8
  %29 = call i32 (ptr, ptr, i32, i64, i64, ptr, ...) @H5E_printf_stack(ptr noundef @.str.2, ptr noundef @__func__.H5VL__free_vol_wrapper, i32 noundef 2184, i64 noundef %27, i64 noundef %28, ptr noundef @.str.109)
  br label %30

30:                                               ; preds = %26
  store i8 1, ptr %4, align 1
  %31 = load i8, ptr %4, align 1
  %32 = trunc i8 %31 to i1
  %33 = zext i1 %32 to i8
  store i8 %33, ptr %4, align 1
  br label %34

34:                                               ; preds = %30
  br label %35

35:                                               ; preds = %34
  store i32 -1, ptr %3, align 4
  br label %63

36:                                               ; No predecessors!
  br label %37

37:                                               ; preds = %36
  br label %38

38:                                               ; preds = %37, %9
  br label %39

39:                                               ; preds = %38, %1
  %40 = load ptr, ptr %2, align 8
  %41 = getelementptr inbounds %struct.H5VL_wrap_ctx_t, ptr %40, i32 0, i32 1
  %42 = load ptr, ptr %41, align 8
  %43 = call i64 @H5VL_conn_dec_rc(ptr noundef %42)
  %44 = icmp slt i64 %43, 0
  br i1 %44, label %45, label %60

45:                                               ; preds = %39
  br label %46

46:                                               ; preds = %45
  br label %47

47:                                               ; preds = %46
  br label %48

48:                                               ; preds = %47
  %49 = load i64, ptr @H5E_VOL_g, align 8
  %50 = load i64, ptr @H5E_CANTDEC_g, align 8
  %51 = call i32 (ptr, ptr, i32, i64, i64, ptr, ...) @H5E_printf_stack(ptr noundef @.str.2, ptr noundef @__func__.H5VL__free_vol_wrapper, i32 noundef 2188, i64 noundef %49, i64 noundef %50, ptr noundef @.str.45)
  br label %52

52:                                               ; preds = %48
  store i8 1, ptr %4, align 1
  %53 = load i8, ptr %4, align 1
  %54 = trunc i8 %53 to i1
  %55 = zext i1 %54 to i8
  store i8 %55, ptr %4, align 1
  br label %56

56:                                               ; preds = %52
  br label %57

57:                                               ; preds = %56
  store i32 -1, ptr %3, align 4
  br label %63

58:                                               ; No predecessors!
  br label %59

59:                                               ; preds = %58
  br label %60

60:                                               ; preds = %59, %39
  %61 = load ptr, ptr %2, align 8
  %62 = call ptr @H5FL_reg_free(ptr noundef @H5_H5VL_wrap_ctx_t_reg_free_list, ptr noundef %61)
  br label %63

63:                                               ; preds = %60, %57, %35
  %64 = load i32, ptr %3, align 4
  ret i32 %64
}