; Function Attrs: nounwind uwtable
define internal fastcc range(i32 -1, 1) i32 @H5VL__free_vol_wrapper(ptr noundef %0) unnamed_addr #0 {
  %2 = getelementptr inbounds i8, ptr %0, i64 16
  %3 = load ptr, ptr %2, align 8
  %.not = icmp eq ptr %3, null
  br i1 %.not, label %16, label %4

4:                                                ; preds = %1
  %5 = getelementptr inbounds i8, ptr %0, i64 8
  %6 = load ptr, ptr %5, align 8
  %7 = load ptr, ptr %6, align 8
  %8 = getelementptr inbounds i8, ptr %7, i64 128
  %9 = load ptr, ptr %8, align 8
  %10 = tail call i32 %9(ptr noundef nonnull %3) #10
  %11 = icmp slt i32 %10, 0
  br i1 %11, label %12, label %16

12:                                               ; preds = %4
  %13 = load i64, ptr @H5E_VOL_g, align 8
  %14 = load i64, ptr @H5E_CANTRELEASE_g, align 8
  %15 = tail call i32 (ptr, ptr, i32, i64, i64, ptr, ...) @H5E_printf_stack(ptr noundef nonnull @.str.2, ptr noundef nonnull @__func__.H5VL__free_vol_wrapper, i32 noundef 2184, i64 noundef %13, i64 noundef %14, ptr noundef nonnull @.str.109) #10
  br label %39

16:                                               ; preds = %4, %1
  %17 = getelementptr inbounds i8, ptr %0, i64 8
  %18 = load ptr, ptr %17, align 8
  %19 = getelementptr inbounds i8, ptr %18, i64 8
  %20 = load i64, ptr %19, align 8
  %21 = add nsw i64 %20, -1
  store i64 %21, ptr %19, align 8
  %22 = icmp eq i64 %21, 0
  br i1 %22, label %23, label %H5VL_conn_dec_rc.exit

23:                                               ; preds = %16
  %24 = getelementptr inbounds i8, ptr %18, i64 16
  %25 = load i64, ptr %24, align 8
  %26 = tail call i32 @H5I_dec_ref(i64 noundef %25) #10
  %27 = icmp slt i32 %26, 0
  br i1 %27, label %H5VL_conn_dec_rc.exit.thread, label %H5VL_conn_dec_rc.exit.thread9

H5VL_conn_dec_rc.exit.thread:                     ; preds = %23
  %28 = load i64, ptr @H5E_VOL_g, align 8
  %29 = load i64, ptr @H5E_CANTDEC_g, align 8
  %30 = tail call i32 (ptr, ptr, i32, i64, i64, ptr, ...) @H5E_printf_stack(ptr noundef nonnull @.str.2, ptr noundef nonnull @__func__.H5VL_conn_dec_rc, i32 noundef 983, i64 noundef %28, i64 noundef %29, ptr noundef nonnull @.str.45) #10
  br label %33

H5VL_conn_dec_rc.exit.thread9:                    ; preds = %23
  %31 = tail call ptr @H5FL_reg_free(ptr noundef nonnull @H5_H5VL_t_reg_free_list, ptr noundef nonnull %18) #10
  br label %37

H5VL_conn_dec_rc.exit:                            ; preds = %16
  %32 = icmp slt i64 %20, 1
  br i1 %32, label %33, label %37

33:                                               ; preds = %H5VL_conn_dec_rc.exit.thread, %H5VL_conn_dec_rc.exit
  %34 = load i64, ptr @H5E_VOL_g, align 8
  %35 = load i64, ptr @H5E_CANTDEC_g, align 8
  %36 = tail call i32 (ptr, ptr, i32, i64, i64, ptr, ...) @H5E_printf_stack(ptr noundef nonnull @.str.2, ptr noundef nonnull @__func__.H5VL__free_vol_wrapper, i32 noundef 2188, i64 noundef %34, i64 noundef %35, ptr noundef nonnull @.str.45) #10
  br label %39

37:                                               ; preds = %H5VL_conn_dec_rc.exit.thread9, %H5VL_conn_dec_rc.exit
  %38 = tail call ptr @H5FL_reg_free(ptr noundef nonnull @H5_H5VL_wrap_ctx_t_reg_free_list, ptr noundef nonnull %0) #10
  br label %39

39:                                               ; preds = %37, %33, %12
  %.0 = phi i32 [ -1, %12 ], [ -1, %33 ], [ 0, %37 ]
  ret i32 %.0
}